target datalayout = "e-m:e-p270:32:32-p271:32:32-p272:64:64-i64:64-i128:128-f80:128-n8:16:32:64-S128"
target triple = "x86_64-pc-linux-gnu"

@.str.14 = private unnamed_addr constant [14 x i8] c"out of memory\00", align 1
@.str.15 = private unnamed_addr constant [14 x i8] c"wrong version\00", align 1
@.str.16 = private unnamed_addr constant [17 x i8] c"needs dictionary\00", align 1
@.str.17 = private unnamed_addr constant [18 x i8] c"data stream error\00", align 1
@.str.18 = private unnamed_addr constant [25 x i8] c"stream consistency error\00", align 1
@.str.19 = private unnamed_addr constant [14 x i8] c"unknown error\00", align 1

; Function Attrs: nounwind uwtable
define internal ptr @zerr_to_string(i32 noundef %0) #0 {
  %2 = alloca ptr, align 8
  %3 = alloca i32, align 4
  store i32 %0, ptr %3, align 4, !tbaa !9
  %4 = load i32, ptr %3, align 4, !tbaa !9
  switch i32 %4, label %10 [
    i32 -4, label %5
    i32 -6, label %6
    i32 2, label %7
    i32 -3, label %8
    i32 -2, label %9
  ]

5:                                                ; preds = %1
  store ptr @.str.14, ptr %2, align 8
  br label %11

6:                                                ; preds = %1
  store ptr @.str.15, ptr %2, align 8
  br label %11

7:                                                ; preds = %1
  store ptr @.str.16, ptr %2, align 8
  br label %11

8:                                                ; preds = %1
  store ptr @.str.17, ptr %2, align 8
  br label %11

9:                                                ; preds = %1
  store ptr @.str.18, ptr %2, align 8
  br label %11

10:                                               ; preds = %1
  store ptr @.str.19, ptr %2, align 8
  br label %11

11:                                               ; preds = %10, %9, %8, %7, %6, %5
  %12 = load ptr, ptr %2, align 8
  ret ptr %12
}