; Function Attrs: mustprogress nofree norecurse nosync nounwind willreturn memory(none) uwtable
define internal fastcc noundef nonnull ptr @zerr_to_string(i32 noundef %0) unnamed_addr #3 {
  %switch.tableidx = add i32 %0, 6
  %2 = icmp ult i32 %switch.tableidx, 9
  br i1 %2, label %switch.lookup, label %4

switch.lookup:                                    ; preds = %1
  %3 = zext nneg i32 %switch.tableidx to i64
  %switch.gep = getelementptr inbounds nuw [9 x ptr], ptr @switch.table.zerr_to_string, i64 0, i64 %3
  %switch.load = load ptr, ptr %switch.gep, align 8
  br label %4

4:                                                ; preds = %1, %switch.lookup
  %.0 = phi ptr [ %switch.load, %switch.lookup ], [ @.str.19, %1 ]
  ret ptr %.0
}